target datalayout = "e-m:e-p270:32:32-p271:32:32-p272:64:64-i64:64-i128:128-f80:128-n8:16:32:64-S128"
target triple = "x86_64-pc-linux-gnu"

%struct.bignum_st = type { ptr, i32, i32, i32, i32 }

; Function Attrs: nounwind uwtable
define hidden i32 @BN_asc2bn(ptr noundef %0, ptr noundef %1) #0 {
  %3 = alloca i32, align 4
  %4 = alloca ptr, align 8
  %5 = alloca ptr, align 8
  %6 = alloca ptr, align 8
  %7 = alloca i32, align 4
  store ptr %0, ptr %4, align 8, !tbaa !32
  store ptr %1, ptr %5, align 8, !tbaa !6
  call void @llvm.lifetime.start.p0(i64 8, ptr %6) #7
  %8 = load ptr, ptr %5, align 8, !tbaa !6
  store ptr %8, ptr %6, align 8, !tbaa !6
  %9 = load ptr, ptr %5, align 8, !tbaa !6
  %10 = load i8, ptr %9, align 1, !tbaa !21
  %11 = sext i8 %10 to i32
  %12 = icmp eq i32 %11, 45
  br i1 %12, label %13, label %16

13:                                               ; preds = %2
  %14 = load ptr, ptr %5, align 8, !tbaa !6
  %15 = getelementptr inbounds nuw i8, ptr %14, i32 1
  store ptr %15, ptr %5, align 8, !tbaa !6
  br label %16

16:                                               ; preds = %13, %2
  %17 = load ptr, ptr %5, align 8, !tbaa !6
  %18 = getelementptr inbounds i8, ptr %17, i64 0
  %19 = load i8, ptr %18, align 1, !tbaa !21
  %20 = sext i8 %19 to i32
  %21 = icmp eq i32 %20, 48
  br i1 %21, label %22, label %42

22:                                               ; preds = %16
  %23 = load ptr, ptr %5, align 8, !tbaa !6
  %24 = getelementptr inbounds i8, ptr %23, i64 1
  %25 = load i8, ptr %24, align 1, !tbaa !21
  %26 = sext i8 %25 to i32
  %27 = icmp eq i32 %26, 88
  br i1 %27, label %34, label %28

28:                                               ; preds = %22
  %29 = load ptr, ptr %5, align 8, !tbaa !6
  %30 = getelementptr inbounds i8, ptr %29, i64 1
  %31 = load i8, ptr %30, align 1, !tbaa !21
  %32 = sext i8 %31 to i32
  %33 = icmp eq i32 %32, 120
  br i1 %33, label %34, label %42

34:                                               ; preds = %28, %22
  %35 = load ptr, ptr %4, align 8, !tbaa !32
  %36 = load ptr, ptr %5, align 8, !tbaa !6
  %37 = getelementptr inbounds i8, ptr %36, i64 2
  %38 = call i32 @BN_hex2bn(ptr noundef %35, ptr noundef %37)
  %39 = icmp ne i32 %38, 0
  br i1 %39, label %41, label %40

40:                                               ; preds = %34
  store i32 0, ptr %3, align 4
  store i32 1, ptr %7, align 4
  br label %64

41:                                               ; preds = %34
  br label %49

42:                                               ; preds = %28, %16
  %43 = load ptr, ptr %4, align 8, !tbaa !32
  %44 = load ptr, ptr %5, align 8, !tbaa !6
  %45 = call i32 @BN_dec2bn(ptr noundef %43, ptr noundef %44)
  %46 = icmp ne i32 %45, 0
  br i1 %46, label %48, label %47

47:                                               ; preds = %42
  store i32 0, ptr %3, align 4
  store i32 1, ptr %7, align 4
  br label %64

48:                                               ; preds = %42
  br label %49

49:                                               ; preds = %48, %41
  %50 = load ptr, ptr %6, align 8, !tbaa !6
  %51 = load i8, ptr %50, align 1, !tbaa !21
  %52 = sext i8 %51 to i32
  %53 = icmp eq i32 %52, 45
  br i1 %53, label %54, label %63

54:                                               ; preds = %49
  %55 = load ptr, ptr %4, align 8, !tbaa !32
  %56 = load ptr, ptr %55, align 8, !tbaa !13
  %57 = call i32 @BN_is_zero(ptr noundef %56)
  %58 = icmp ne i32 %57, 0
  br i1 %58, label %63, label %59

59:                                               ; preds = %54
  %60 = load ptr, ptr %4, align 8, !tbaa !32
  %61 = load ptr, ptr %60, align 8, !tbaa !13
  %62 = getelementptr inbounds nuw %struct.bignum_st, ptr %61, i32 0, i32 3
  store i32 1, ptr %62, align 8, !tbaa !20
  br label %63

63:                                               ; preds = %59, %54, %49
  store i32 1, ptr %3, align 4
  store i32 1, ptr %7, align 4
  br label %64

64:                                               ; preds = %63, %47, %40
  call void @llvm.lifetime.end.p0(i64 8, ptr %6) #7
  %65 = load i32, ptr %3, align 4
  ret i32 %65
}