; Function Attrs: nounwind uwtable
define hidden range(i32 0, 2) i32 @BN_asc2bn(ptr noundef captures(address_is_null) %0, ptr noundef captures(address_is_null) %1) local_unnamed_addr #0 {
  %3 = load i8, ptr %1, align 1, !tbaa !14
  %4 = icmp eq i8 %3, 45
  %spec.select.idx = zext i1 %4 to i64
  %spec.select = getelementptr inbounds nuw i8, ptr %1, i64 %spec.select.idx
  %5 = load i8, ptr %spec.select, align 1, !tbaa !14
  %6 = icmp eq i8 %5, 48
  br i1 %6, label %7, label %13

7:                                                ; preds = %2
  %8 = getelementptr inbounds nuw i8, ptr %spec.select, i64 1
  %9 = load i8, ptr %8, align 1, !tbaa !14
  switch i8 %9, label %13 [
    i8 88, label %10
    i8 120, label %10
  ]

10:                                               ; preds = %7, %7
  %11 = getelementptr inbounds nuw i8, ptr %spec.select, i64 2
  %12 = tail call i32 @BN_hex2bn(ptr noundef %0, ptr noundef nonnull %11)
  %.not15 = icmp eq i32 %12, 0
  br i1 %.not15, label %24, label %15

13:                                               ; preds = %7, %2
  %14 = tail call i32 @BN_dec2bn(ptr noundef %0, ptr noundef nonnull %spec.select)
  %.not = icmp eq i32 %14, 0
  br i1 %.not, label %24, label %15

15:                                               ; preds = %13, %10
  %16 = load i8, ptr %1, align 1, !tbaa !14
  %17 = icmp eq i8 %16, 45
  br i1 %17, label %18, label %24

18:                                               ; preds = %15
  %19 = load ptr, ptr %0, align 8, !tbaa !29
  %20 = tail call i32 @BN_is_zero(ptr noundef %19) #9
  %.not16 = icmp eq i32 %20, 0
  br i1 %.not16, label %21, label %24

21:                                               ; preds = %18
  %22 = load ptr, ptr %0, align 8, !tbaa !29
  %23 = getelementptr inbounds nuw i8, ptr %22, i64 16
  store i32 1, ptr %23, align 8, !tbaa !13
  br label %24

24:                                               ; preds = %15, %18, %21, %13, %10
  %.0 = phi i32 [ 0, %10 ], [ 0, %13 ], [ 1, %21 ], [ 1, %18 ], [ 1, %15 ]
  ret i32 %.0
}